target datalayout = "e-m:e-p270:32:32-p271:32:32-p272:64:64-i64:64-i128:128-f80:128-n8:16:32:64-S128"
target triple = "x86_64-pc-linux-gnu"

%"class.cv::Mat" = type { i32, i32, i32, i32, ptr, ptr, ptr, ptr, ptr, ptr, %"struct.cv::MatSize", %"struct.cv::MatStep" }
%"struct.cv::MatSize" = type { ptr }
%"struct.cv::MatStep" = type { ptr, [2 x i64] }
%"class.cv::ximgproc::EdgeAwareInterpolatorImpl" = type { %"class.cv::ximgproc::EdgeAwareInterpolator", i32, i32, i32, ptr, %"class.cv::Mat", %"class.cv::Mat", %"class.cv::Mat", %"class.cv::Mat", float, i32, float, i8, float, float, float, [4 x %"class.cv::RNG"] }
%"class.cv::ximgproc::EdgeAwareInterpolator" = type { %"class.cv::ximgproc::SparseMatchInterpolator" }
%"class.cv::ximgproc::SparseMatchInterpolator" = type { %"class.cv::Algorithm" }
%"class.cv::Algorithm" = type { ptr }
%"class.cv::RNG" = type { i64 }
%"class.cv::ParallelLoopBody" = type { ptr }
%"struct.cv::ximgproc::EdgeAwareInterpolatorImpl::RansacInterpolation_ParBody" = type <{ %"class.cv::ParallelLoopBody", ptr, ptr, ptr, ptr, ptr, i32, i32, i32, [4 x i8] }>

@_ZTVN2cv16ParallelLoopBodyE = available_externally unnamed_addr constant { [5 x ptr] } { [5 x ptr] [ptr null, ptr @_ZTIN2cv16ParallelLoopBodyE, ptr @_ZN2cv16ParallelLoopBodyD1Ev, ptr @_ZN2cv16ParallelLoopBodyD0Ev, ptr @__cxa_pure_virtual] }, align 8

; Function Attrs: inlinehint mustprogress nounwind uwtable
define linkonce_odr hidden void @_ZN2cv16ParallelLoopBodyC2Ev(ptr noundef nonnull align 8 dereferenceable(8) %0) unnamed_addr #13 comdat align 2 {
  %2 = alloca ptr, align 8
  store ptr %0, ptr %2, align 8, !tbaa !165
  %3 = load ptr, ptr %2, align 8
  store ptr getelementptr inbounds inrange(-16, 24) ({ [5 x ptr] }, ptr @_ZTVN2cv16ParallelLoopBodyE, i32 0, i32 0, i32 2), ptr %3, align 8, !tbaa !31
  ret void
}

; Function Attrs: mustprogress nounwind uwtable
define hidden void @_ZN2cv8ximgproc25EdgeAwareInterpolatorImpl27RansacInterpolation_ParBodyC2ERS1_PNS_3MatEPfS6_PNS0_11SparseMatchEii(ptr noundef nonnull align 8 dereferenceable(60) %0, ptr noundef nonnull align 8 dereferenceable(480) %1, ptr noundef %2, ptr noundef %3, ptr noundef %4, ptr noundef %5, i32 noundef %6, i32 noundef %7) unnamed_addr #12 align 2 {
  %9 = alloca ptr, align 8
  %10 = alloca ptr, align 8
  %11 = alloca ptr, align 8
  %12 = alloca ptr, align 8
  %13 = alloca ptr, align 8
  %14 = alloca ptr, align 8
  %15 = alloca i32, align 4
  %16 = alloca i32, align 4
  store ptr %0, ptr %9, align 8, !tbaa !183
  store ptr %1, ptr %10, align 8, !tbaa !3
  store ptr %2, ptr %11, align 8, !tbaa !61
  store ptr %3, ptr %12, align 8, !tbaa !92
  store ptr %4, ptr %13, align 8, !tbaa !92
  store ptr %5, ptr %14, align 8, !tbaa !78
  store i32 %6, ptr %15, align 4, !tbaa !41
  store i32 %7, ptr %16, align 4, !tbaa !41
  %17 = load ptr, ptr %9, align 8
  call void @_ZN2cv16ParallelLoopBodyC2Ev(ptr noundef nonnull align 8 dereferenceable(8) %17) #3
  store ptr getelementptr inbounds inrange(-16, 24) ({ [5 x ptr] }, ptr @_ZTVN2cv8ximgproc25EdgeAwareInterpolatorImpl27RansacInterpolation_ParBodyE, i32 0, i32 0, i32 2), ptr %17, align 8, !tbaa !31
  %18 = getelementptr inbounds nuw %"struct.cv::ximgproc::EdgeAwareInterpolatorImpl::RansacInterpolation_ParBody", ptr %17, i32 0, i32 1
  %19 = load ptr, ptr %10, align 8, !tbaa !3
  store ptr %19, ptr %18, align 8, !tbaa !185
  %20 = getelementptr inbounds nuw %"struct.cv::ximgproc::EdgeAwareInterpolatorImpl::RansacInterpolation_ParBody", ptr %17, i32 0, i32 2
  %21 = load ptr, ptr %11, align 8, !tbaa !61
  store ptr %21, ptr %20, align 8, !tbaa !187
  %22 = getelementptr inbounds nuw %"struct.cv::ximgproc::EdgeAwareInterpolatorImpl::RansacInterpolation_ParBody", ptr %17, i32 0, i32 3
  %23 = load ptr, ptr %12, align 8, !tbaa !92
  store ptr %23, ptr %22, align 8, !tbaa !188
  %24 = getelementptr inbounds nuw %"struct.cv::ximgproc::EdgeAwareInterpolatorImpl::RansacInterpolation_ParBody", ptr %17, i32 0, i32 4
  %25 = load ptr, ptr %13, align 8, !tbaa !92
  store ptr %25, ptr %24, align 8, !tbaa !189
  %26 = getelementptr inbounds nuw %"struct.cv::ximgproc::EdgeAwareInterpolatorImpl::RansacInterpolation_ParBody", ptr %17, i32 0, i32 5
  %27 = load ptr, ptr %14, align 8, !tbaa !78
  store ptr %27, ptr %26, align 8, !tbaa !190
  %28 = getelementptr inbounds nuw %"struct.cv::ximgproc::EdgeAwareInterpolatorImpl::RansacInterpolation_ParBody", ptr %17, i32 0, i32 6
  %29 = load i32, ptr %15, align 4, !tbaa !41
  store i32 %29, ptr %28, align 8, !tbaa !191
  %30 = getelementptr inbounds nuw %"struct.cv::ximgproc::EdgeAwareInterpolatorImpl::RansacInterpolation_ParBody", ptr %17, i32 0, i32 8
  %31 = load i32, ptr %16, align 4, !tbaa !41
  store i32 %31, ptr %30, align 8, !tbaa !192
  %32 = getelementptr inbounds nuw %"struct.cv::ximgproc::EdgeAwareInterpolatorImpl::RansacInterpolation_ParBody", ptr %17, i32 0, i32 1
  %33 = load ptr, ptr %32, align 8, !tbaa !185
  %34 = getelementptr inbounds nuw %"class.cv::ximgproc::EdgeAwareInterpolatorImpl", ptr %33, i32 0, i32 1
  %35 = load i32, ptr %34, align 8, !tbaa !47
  %36 = sitofp i32 %35 to double
  %37 = getelementptr inbounds nuw %"struct.cv::ximgproc::EdgeAwareInterpolatorImpl::RansacInterpolation_ParBody", ptr %17, i32 0, i32 6
  %38 = load i32, ptr %37, align 8, !tbaa !191
  %39 = sitofp i32 %38 to double
  %40 = fdiv double %36, %39
  %41 = call double @llvm.ceil.f64(double %40)
  %42 = fptosi double %41 to i32
  %43 = getelementptr inbounds nuw %"struct.cv::ximgproc::EdgeAwareInterpolatorImpl::RansacInterpolation_ParBody", ptr %17, i32 0, i32 7
  store i32 %42, ptr %43, align 4, !tbaa !193
  ret void
}