; Function Attrs: mustprogress nofree norecurse nosync nounwind willreturn memory(argmem: readwrite) uwtable
define hidden void @_ZN2cv8ximgproc25EdgeAwareInterpolatorImpl27RansacInterpolation_ParBodyC2ERS1_PNS_3MatEPfS6_PNS0_11SparseMatchEii(ptr noundef nonnull writeonly align 8 captures(none) dereferenceable(60) initializes((0, 60)) %0, ptr noundef nonnull align 8 dereferenceable(480) %1, ptr noundef %2, ptr noundef %3, ptr noundef %4, ptr noundef %5, i32 noundef %6, i32 noundef %7) unnamed_addr #14 align 2 {
  store ptr getelementptr inbounds nuw inrange(-16, 24) (i8, ptr @_ZTVN2cv8ximgproc25EdgeAwareInterpolatorImpl27RansacInterpolation_ParBodyE, i64 16), ptr %0, align 8, !tbaa !29
  %9 = getelementptr inbounds nuw i8, ptr %0, i64 8
  store ptr %1, ptr %9, align 8, !tbaa !115
  %10 = getelementptr inbounds nuw i8, ptr %0, i64 16
  store ptr %2, ptr %10, align 8, !tbaa !119
  %11 = getelementptr inbounds nuw i8, ptr %0, i64 24
  store ptr %3, ptr %11, align 8, !tbaa !120
  %12 = getelementptr inbounds nuw i8, ptr %0, i64 32
  store ptr %4, ptr %12, align 8, !tbaa !121
  %13 = getelementptr inbounds nuw i8, ptr %0, i64 40
  store ptr %5, ptr %13, align 8, !tbaa !122
  %14 = getelementptr inbounds nuw i8, ptr %0, i64 48
  store i32 %6, ptr %14, align 8, !tbaa !123
  %15 = getelementptr inbounds nuw i8, ptr %0, i64 56
  store i32 %7, ptr %15, align 8, !tbaa !124
  %16 = getelementptr inbounds nuw i8, ptr %1, i64 8
  %17 = load i32, ptr %16, align 8, !tbaa !62
  %18 = sitofp i32 %17 to double
  %19 = sitofp i32 %6 to double
  %20 = fdiv double %18, %19
  %21 = tail call double @llvm.ceil.f64(double %20)
  %22 = fptosi double %21 to i32
  %23 = getelementptr inbounds nuw i8, ptr %0, i64 52
  store i32 %22, ptr %23, align 4, !tbaa !125
  ret void
}